; Function Attrs: mustprogress nounwind uwtable
define hidden noundef zeroext i1 @_ZNK19OpenColorIO_v2_4dev18NamedTransformImpl11hasCategoryEPKc(ptr noundef nonnull align 8 dereferenceable(224) %this, ptr noundef %category) unnamed_addr #3 align 2 {
entry:
  %m_categories = getelementptr inbounds i8, ptr %this, i64 160
  %call.i = tail call ptr @_ZNK19OpenColorIO_v2_4dev13TokensManager9findTokenB5cxx11EPKc(ptr noundef nonnull align 8 dereferenceable(32) %m_categories, ptr noundef %category) #17
  %_M_finish.i.i = getelementptr inbounds i8, ptr %this, i64 176
  %0 = load ptr, ptr %_M_finish.i.i, align 8
  %cmp.i.i = icmp ne ptr %call.i, %0
  ret i1 %cmp.i.i
}